; Function Attrs: mustprogress uwtable
define hidden void @_ZN8facebook6hermes7tracing16TraceInterpreter10printStatsB5cxx11Ev(ptr noalias sret(%"class.std::__cxx11::basic_string") align 8 %agg.result, ptr nocapture noundef nonnull readonly align 8 dereferenceable(576) %this) local_unnamed_addr #3 align 2 personality ptr @__gxx_personality_v0 {
entry:
  %agg.tmp = alloca %"class.std::__cxx11::basic_string", align 8
  %ref.tmp = alloca %"class.std::allocator.0", align 1
  %forceGCBeforeStats = getelementptr inbounds i8, ptr %this, i64 236
  %0 = load i8, ptr %forceGCBeforeStats, align 4
  %1 = and i8 %0, 1
  %tobool.not = icmp eq i8 %1, 0
  br i1 %tobool.not, label %if.end, label %if.then

if.then:                                          ; preds = %entry
  %2 = load ptr, ptr %this, align 8
  %vtable = load ptr, ptr %2, align 8
  %vfn = getelementptr inbounds i8, ptr %vtable, i64 72
  %3 = load ptr, ptr %vfn, align 8
  %call = tail call noundef nonnull align 8 dereferenceable(8) ptr %3(ptr noundef nonnull align 8 dereferenceable(8) %2)
  call void @_ZNSaIcEC1Ev(ptr noundef nonnull align 1 dereferenceable(1) %ref.tmp) #29
  %call.i4 = invoke noundef ptr @_ZNSt7__cxx1112basic_stringIcSt11char_traitsIcESaIcEE13_M_local_dataEv(ptr noundef nonnull align 8 dereferenceable(32) %agg.tmp)
          to label %call.i.noexc unwind label %lpad

call.i.noexc:                                     ; preds = %if.then
  invoke void @_ZNSt7__cxx1112basic_stringIcSt11char_traitsIcESaIcEE12_Alloc_hiderC1EPcRKS3_(ptr noundef nonnull align 8 dereferenceable(8) %agg.tmp, ptr noundef %call.i4, ptr noundef nonnull align 1 dereferenceable(1) %ref.tmp)
          to label %.noexc unwind label %lpad

.noexc:                                           ; preds = %call.i.noexc
  invoke void @_ZNSt7__cxx1112basic_stringIcSt11char_traitsIcESaIcEE12_M_constructIPKcEEvT_S8_St20forward_iterator_tag(ptr noundef nonnull align 8 dereferenceable(32) %agg.tmp, ptr noundef nonnull @.str.12, ptr noundef nonnull getelementptr inbounds ([17 x i8], ptr @.str.12, i64 0, i64 16))
          to label %invoke.cont unwind label %lpad.i

lpad.i:                                           ; preds = %.noexc
  %4 = landingpad { ptr, i32 }
          cleanup
  call void @_ZNSaIcED2Ev(ptr noundef nonnull align 1 dereferenceable(1) %agg.tmp) #29
  br label %ehcleanup

invoke.cont:                                      ; preds = %.noexc
  %vtable2 = load ptr, ptr %call, align 8
  %vfn3 = getelementptr inbounds i8, ptr %vtable2, i64 32
  %5 = load ptr, ptr %vfn3, align 8
  invoke void %5(ptr noundef nonnull align 8 dereferenceable(8) %call, ptr noundef nonnull %agg.tmp)
          to label %invoke.cont5 unwind label %lpad4

invoke.cont5:                                     ; preds = %invoke.cont
  call void @_ZNSt7__cxx1112basic_stringIcSt11char_traitsIcESaIcEED1Ev(ptr noundef nonnull align 8 dereferenceable(32) %agg.tmp) #29
  call void @_ZNSaIcED1Ev(ptr noundef nonnull align 1 dereferenceable(1) %ref.tmp) #29
  br label %if.end

lpad:                                             ; preds = %call.i.noexc, %if.then
  %6 = landingpad { ptr, i32 }
          cleanup
  br label %ehcleanup

lpad4:                                            ; preds = %invoke.cont
  %7 = landingpad { ptr, i32 }
          cleanup
  call void @_ZNSt7__cxx1112basic_stringIcSt11char_traitsIcESaIcEED1Ev(ptr noundef nonnull align 8 dereferenceable(32) %agg.tmp) #29
  br label %ehcleanup

ehcleanup:                                        ; preds = %lpad, %lpad.i, %lpad4
  %.pn = phi { ptr, i32 } [ %7, %lpad4 ], [ %6, %lpad ], [ %4, %lpad.i ]
  call void @_ZNSaIcED1Ev(ptr noundef nonnull align 1 dereferenceable(1) %ref.tmp) #29
  br label %eh.resume

if.end:                                           ; preds = %invoke.cont5, %entry
  %8 = load ptr, ptr %this, align 8
  %vtable7 = load ptr, ptr %8, align 8
  %vfn8 = getelementptr inbounds i8, ptr %vtable7, i64 72
  %9 = load ptr, ptr %vfn8, align 8
  %call9 = call noundef nonnull align 8 dereferenceable(8) ptr %9(ptr noundef nonnull align 8 dereferenceable(8) %8)
  %vtable10 = load ptr, ptr %call9, align 8
  %vfn11 = getelementptr inbounds i8, ptr %vtable10, i64 16
  %10 = load ptr, ptr %vfn11, align 8
  call void %10(ptr sret(%"class.std::__cxx11::basic_string") align 8 %agg.result, ptr noundef nonnull align 8 dereferenceable(8) %call9)
  %call14 = invoke noundef zeroext i1 @_ZN6hermes2vm15instrumentation10PerfEvents17endAndInsertStatsERNSt7__cxx1112basic_stringIcSt11char_traitsIcESaIcEEE(ptr noundef nonnull align 8 dereferenceable(32) %agg.result)
          to label %nrvo.skipdtor unwind label %lpad12

lpad12:                                           ; preds = %if.end
  %11 = landingpad { ptr, i32 }
          cleanup
  call void @_ZNSt7__cxx1112basic_stringIcSt11char_traitsIcESaIcEED1Ev(ptr noundef nonnull align 8 dereferenceable(32) %agg.result) #29
  br label %eh.resume

nrvo.skipdtor:                                    ; preds = %if.end
  ret void

eh.resume:                                        ; preds = %lpad12, %ehcleanup
  %.pn2 = phi { ptr, i32 } [ %11, %lpad12 ], [ %.pn, %ehcleanup ]
  resume { ptr, i32 } %.pn2
}